; Function Attrs: mustprogress uwtable
define void @_ZN8QuantLib17CreditDefaultSwap9argumentsC1Ev(ptr noundef nonnull align 8 dereferenceable(144) %this) unnamed_addr #9 align 2 personality ptr @__gxx_personality_v0 {
invoke.cont4:
  store ptr getelementptr inbounds inrange(-40, 24) (i8, ptr @_ZTVN8QuantLib17CreditDefaultSwap9argumentsE, i64 40), ptr %this, align 8, !tbaa !33
  %side = getelementptr inbounds nuw i8, ptr %this, i64 8
  store i32 -1, ptr %side, align 8, !tbaa !147
  %notional = getelementptr inbounds nuw i8, ptr %this, i64 16
  store double 0x47EFFFFFE0000000, ptr %notional, align 8, !tbaa !149
  %upfront = getelementptr inbounds nuw i8, ptr %this, i64 24
  store i8 0, ptr %upfront, align 8, !tbaa !69
  %spread = getelementptr inbounds nuw i8, ptr %this, i64 40
  store double 0x47EFFFFFE0000000, ptr %spread, align 8, !tbaa !152
  %leg = getelementptr inbounds nuw i8, ptr %this, i64 48
  %claim = getelementptr inbounds nuw i8, ptr %this, i64 112
  tail call void @llvm.memset.p0.i64(ptr noundef nonnull align 8 dereferenceable(16) %claim, i8 0, i64 16, i1 false)
  %protectionStart = getelementptr inbounds nuw i8, ptr %this, i64 128
  tail call void @llvm.memset.p0.i64(ptr noundef nonnull align 8 dereferenceable(56) %leg, i8 0, i64 56, i1 false)
  invoke void @_ZN8QuantLib4DateC1Ev(ptr noundef nonnull align 8 dereferenceable(8) %protectionStart)
          to label %invoke.cont7 unwind label %lpad6

invoke.cont7:                                     ; preds = %invoke.cont4
  %maturity = getelementptr inbounds nuw i8, ptr %this, i64 136
  invoke void @_ZN8QuantLib4DateC1Ev(ptr noundef nonnull align 8 dereferenceable(8) %maturity)
          to label %invoke.cont8 unwind label %lpad6

invoke.cont8:                                     ; preds = %invoke.cont7
  ret void

lpad6:                                            ; preds = %invoke.cont7, %invoke.cont4
  %0 = landingpad { ptr, i32 }
          cleanup
  %accrualRebate = getelementptr inbounds nuw i8, ptr %this, i64 88
  %upfrontPayment = getelementptr inbounds nuw i8, ptr %this, i64 72
  tail call void @_ZN5boost10shared_ptrIN8QuantLib5ClaimEED2Ev(ptr noundef nonnull align 8 dereferenceable(16) %claim) #29
  tail call void @_ZN5boost10shared_ptrIN8QuantLib14SimpleCashFlowEED2Ev(ptr noundef nonnull align 8 dereferenceable(16) %accrualRebate) #29
  tail call void @_ZN5boost10shared_ptrIN8QuantLib14SimpleCashFlowEED2Ev(ptr noundef nonnull align 8 dereferenceable(16) %upfrontPayment) #29
  tail call void @_ZNSt6vectorIN5boost10shared_ptrIN8QuantLib8CashFlowEEESaIS4_EED2Ev(ptr noundef nonnull align 8 dereferenceable(24) %leg) #29
  resume { ptr, i32 } %0
}